; ModuleID = '58/1110.c'
source_filename = "58/1110.c"
target datalayout = "e-m:e-p270:32:32-p271:32:32-p272:64:64-i64:64-f80:128-n8:16:32:64-S128"
target triple = "x86_64-pc-linux-gnu"

@.str = private unnamed_addr constant [4 x i8] c"%d\0A\00", align 1

; Function Attrs: noinline nounwind uwtable
define dso_local i32 @main() #0 {
  %1 = alloca i32, align 4
  %2 = alloca i32, align 4
  %3 = alloca i32, align 4
  %4 = alloca i32, align 4
  %5 = alloca i32, align 4
  %6 = alloca i32, align 4
  %7 = alloca i32, align 4
  %8 = alloca i32, align 4
  %9 = alloca i8*, align 8
  %10 = alloca [81 x i8], align 16
  %11 = alloca [2 x i8], align 1
  store i32 0, i32* %1, align 4
  store i32 1, i32* %7, align 4
  store i32 0, i32* %8, align 4
  %12 = getelementptr inbounds [2 x i8], [2 x i8]* %11, i64 0, i64 0
  %13 = call i32 (i8*, ...) bitcast (i32 (...)* @gets to i32 (i8*, ...)*)(i8* %12)
  %14 = getelementptr inbounds [2 x i8], [2 x i8]* %11, i64 0, i64 0
  %15 = call i32 @atoi(i8* %14) #3
  store i32 %15, i32* %2, align 4
  store i32 0, i32* %4, align 4
  br label %16

16:                                               ; preds = %98, %0
  %17 = load i32, i32* %4, align 4
  %18 = load i32, i32* %2, align 4
  %19 = icmp slt i32 %17, %18
  br i1 %19, label %20, label %101

20:                                               ; preds = %16
  store i32 0, i32* %6, align 4
  %21 = getelementptr inbounds [81 x i8], [81 x i8]* %10, i64 0, i64 0
  %22 = call i32 (i8*, ...) bitcast (i32 (...)* @gets to i32 (i8*, ...)*)(i8* %21)
  %23 = getelementptr inbounds [81 x i8], [81 x i8]* %10, i64 0, i64 0
  %24 = call i64 @strlen(i8* %23) #3
  %25 = trunc i64 %24 to i32
  store i32 %25, i32* %3, align 4
  %26 = getelementptr inbounds [81 x i8], [81 x i8]* %10, i64 0, i64 0
  store i8* %26, i8** %9, align 8
  %27 = load i8*, i8** %9, align 8
  %28 = load i8, i8* %27, align 1
  %29 = sext i8 %28 to i32
  %30 = icmp eq i32 %29, 95
  br i1 %30, label %41, label %31

31:                                               ; preds = %20
  %32 = load i8*, i8** %9, align 8
  %33 = load i8, i8* %32, align 1
  %34 = sext i8 %33 to i32
  %35 = icmp sge i32 %34, 65
  br i1 %35, label %36, label %94

36:                                               ; preds = %31
  %37 = load i8*, i8** %9, align 8
  %38 = load i8, i8* %37, align 1
  %39 = sext i8 %38 to i32
  %40 = icmp sle i32 %39, 122
  br i1 %40, label %41, label %94

41:                                               ; preds = %36, %20
  %42 = getelementptr inbounds [81 x i8], [81 x i8]* %10, i64 0, i64 0
  %43 = getelementptr inbounds i8, i8* %42, i64 1
  store i8* %43, i8** %9, align 8
  br label %44

44:                                               ; preds = %82, %41
  %45 = load i8*, i8** %9, align 8
  %46 = getelementptr inbounds [81 x i8], [81 x i8]* %10, i64 0, i64 0
  %47 = load i32, i32* %3, align 4
  %48 = sext i32 %47 to i64
  %49 = getelementptr inbounds i8, i8* %46, i64 %48
  %50 = icmp ult i8* %45, %49
  br i1 %50, label %51, label %85

51:                                               ; preds = %44
  %52 = load i8*, i8** %9, align 8
  %53 = load i8, i8* %52, align 1
  %54 = sext i8 %53 to i32
  %55 = icmp ne i32 %54, 95
  br i1 %55, label %56, label %79

56:                                               ; preds = %51
  %57 = load i8*, i8** %9, align 8
  %58 = load i8, i8* %57, align 1
  %59 = sext i8 %58 to i32
  %60 = icmp slt i32 %59, 48
  br i1 %60, label %76, label %61

61:                                               ; preds = %56
  %62 = load i8*, i8** %9, align 8
  %63 = load i8, i8* %62, align 1
  %64 = sext i8 %63 to i32
  %65 = icmp sgt i32 %64, 57
  br i1 %65, label %66, label %71

66:                                               ; preds = %61
  %67 = load i8*, i8** %9, align 8
  %68 = load i8, i8* %67, align 1
  %69 = sext i8 %68 to i32
  %70 = icmp slt i32 %69, 65
  br i1 %70, label %76, label %71

71:                                               ; preds = %66, %61
  %72 = load i8*, i8** %9, align 8
  %73 = load i8, i8* %72, align 1
  %74 = sext i8 %73 to i32
  %75 = icmp sgt i32 %74, 122
  br i1 %75, label %76, label %79

76:                                               ; preds = %71, %66, %56
  %77 = load i32, i32* %8, align 4
  %78 = call i32 (i8*, ...) @printf(i8* getelementptr inbounds ([4 x i8], [4 x i8]* @.str, i64 0, i64 0), i32 %77)
  br label %85

79:                                               ; preds = %71, %51
  %80 = load i32, i32* %6, align 4
  %81 = add nsw i32 %80, 1
  store i32 %81, i32* %6, align 4
  br label %82

82:                                               ; preds = %79
  %83 = load i8*, i8** %9, align 8
  %84 = getelementptr inbounds i8, i8* %83, i32 1
  store i8* %84, i8** %9, align 8
  br label %44

85:                                               ; preds = %76, %44
  %86 = load i32, i32* %6, align 4
  %87 = load i32, i32* %3, align 4
  %88 = sub nsw i32 %87, 1
  %89 = icmp eq i32 %86, %88
  br i1 %89, label %90, label %93

90:                                               ; preds = %85
  %91 = load i32, i32* %7, align 4
  %92 = call i32 (i8*, ...) @printf(i8* getelementptr inbounds ([4 x i8], [4 x i8]* @.str, i64 0, i64 0), i32 %91)
  br label %93

93:                                               ; preds = %90, %85
  br label %97

94:                                               ; preds = %36, %31
  %95 = load i32, i32* %8, align 4
  %96 = call i32 (i8*, ...) @printf(i8* getelementptr inbounds ([4 x i8], [4 x i8]* @.str, i64 0, i64 0), i32 %95)
  br label %97

97:                                               ; preds = %94, %93
  br label %98

98:                                               ; preds = %97
  %99 = load i32, i32* %4, align 4
  %100 = add nsw i32 %99, 1
  store i32 %100, i32* %4, align 4
  br label %16

101:                                              ; preds = %16
  ret i32 0
}

declare dso_local i32 @gets(...) #1

; Function Attrs: nounwind readonly
declare dso_local i32 @atoi(i8*) #2

; Function Attrs: nounwind readonly
declare dso_local i64 @strlen(i8*) #2

declare dso_local i32 @printf(i8*, ...) #1


!llvm.module.flags = !{!0}
!llvm.ident = !{!1}

!0 = !{i32 1, !"wchar_size", i32 4}
!1 = !{!"clang version 10.0.0-4ubuntu1 "}
